target datalayout = "e-m:e-p270:32:32-p271:32:32-p272:64:64-i64:64-i128:128-f80:128-n8:16:32:64-S128"
target triple = "x86_64-pc-linux-gnu"

%"class.Assimp::StreamReader" = type <{ %"class.std::shared_ptr", ptr, ptr, ptr, ptr, i8, [7 x i8] }>
%"class.std::shared_ptr" = type { %"class.std::__shared_ptr" }
%"class.std::__shared_ptr" = type { ptr, %"class.std::__shared_count" }
%"class.std::__shared_count" = type { ptr }
%class.aiMatrix4x4t = type { float, float, float, float, float, float, float, float, float, float, float, float, float, float, float, float }
%"struct.Assimp::Intern::Getter.55" = type { i8 }
%"struct.Assimp::Intern::ByteSwapper.56" = type { i8 }

@_ZTI17DeadlyImportError = linkonce_odr constant { ptr, ptr, ptr } { ptr getelementptr inbounds (ptr, ptr @_ZTVN10__cxxabiv120__si_class_type_infoE, i64 2), ptr @_ZTS17DeadlyImportError, ptr @_ZTI15DeadlyErrorBase }, comdat, align 8
@.str.13 = private unnamed_addr constant [40 x i8] c"End of file or stream limit was reached\00", align 1

; Function Attrs: mustprogress nounwind uwtable
define linkonce_odr hidden void @_ZN6Assimp6Intern11ByteSwapperIfLb0EEclEPf(ptr noundef nonnull align 1 dereferenceable(1) %0, ptr noundef %1) #3 comdat align 2 {
  %3 = alloca ptr, align 8
  %4 = alloca ptr, align 8
  store ptr %0, ptr %3, align 8
  store ptr %1, ptr %4, align 8
  ret void
}

; Function Attrs: mustprogress uwtable
define linkonce_odr hidden void @_ZN6Assimp6Intern6GetterILb0EfLb0EEclEPfb(ptr noundef nonnull align 1 dereferenceable(1) %0, ptr noundef %1, i1 noundef zeroext %2) #1 comdat align 2 {
  %4 = alloca ptr, align 8
  %5 = alloca ptr, align 8
  %6 = alloca i8, align 1
  %7 = alloca %"struct.Assimp::Intern::ByteSwapper.56", align 1
  store ptr %0, ptr %4, align 8
  store ptr %1, ptr %5, align 8
  %8 = zext i1 %2 to i8
  store i8 %8, ptr %6, align 1
  call void @llvm.lifetime.start.p0(i64 1, ptr %7) #22
  %9 = load ptr, ptr %5, align 8
  call void @_ZN6Assimp6Intern11ByteSwapperIfLb0EEclEPf(ptr noundef nonnull align 1 dereferenceable(1) %7, ptr noundef %9)
  call void @llvm.lifetime.end.p0(i64 1, ptr %7) #22
  ret void
}

; Function Attrs: mustprogress uwtable
define linkonce_odr hidden noundef float @_ZN6Assimp12StreamReaderILb0ELb0EE3GetIfEET_v(ptr noundef nonnull align 8 dereferenceable(49) %0) #1 comdat align 2 personality ptr @__gxx_personality_v0 {
  %2 = alloca ptr, align 8
  %3 = alloca ptr, align 8
  %4 = alloca i32, align 4
  %5 = alloca float, align 4
  %6 = alloca %"struct.Assimp::Intern::Getter.55", align 1
  store ptr %0, ptr %2, align 8
  %7 = load ptr, ptr %2, align 8
  %8 = getelementptr inbounds nuw %"class.Assimp::StreamReader", ptr %7, i32 0, i32 2
  %9 = load ptr, ptr %8, align 8
  %10 = getelementptr inbounds nuw i8, ptr %9, i64 4
  %11 = getelementptr inbounds nuw %"class.Assimp::StreamReader", ptr %7, i32 0, i32 4
  %12 = load ptr, ptr %11, align 8
  %13 = icmp ugt ptr %10, %12
  br i1 %13, label %14, label %21

14:                                               ; preds = %1
  %15 = call ptr @__cxa_allocate_exception(i64 16) #22
  invoke void @_ZN17DeadlyImportErrorC2EPKc(ptr noundef nonnull align 8 dereferenceable(16) %15, ptr noundef @.str.13)
          to label %16 unwind label %17

16:                                               ; preds = %14
  call void @__cxa_throw(ptr %15, ptr @_ZTI17DeadlyImportError, ptr @_ZNSt13runtime_errorD2Ev) #23
  unreachable

17:                                               ; preds = %14
  %18 = landingpad { ptr, i32 }
          cleanup
  %19 = extractvalue { ptr, i32 } %18, 0
  store ptr %19, ptr %3, align 8
  %20 = extractvalue { ptr, i32 } %18, 1
  store i32 %20, ptr %4, align 4
  call void @__cxa_free_exception(ptr %15) #22
  br label %31

21:                                               ; preds = %1
  call void @llvm.lifetime.start.p0(i64 4, ptr %5) #22
  %22 = getelementptr inbounds nuw %"class.Assimp::StreamReader", ptr %7, i32 0, i32 2
  %23 = load ptr, ptr %22, align 8
  call void @llvm.memcpy.p0.p0.i64(ptr align 4 %5, ptr align 1 %23, i64 4, i1 false)
  call void @llvm.lifetime.start.p0(i64 1, ptr %6) #22
  %24 = getelementptr inbounds nuw %"class.Assimp::StreamReader", ptr %7, i32 0, i32 5
  %25 = load i8, ptr %24, align 8, !range !7, !noundef !8
  %26 = trunc i8 %25 to i1
  call void @_ZN6Assimp6Intern6GetterILb0EfLb0EEclEPfb(ptr noundef nonnull align 1 dereferenceable(1) %6, ptr noundef %5, i1 noundef zeroext %26)
  call void @llvm.lifetime.end.p0(i64 1, ptr %6) #22
  %27 = getelementptr inbounds nuw %"class.Assimp::StreamReader", ptr %7, i32 0, i32 2
  %28 = load ptr, ptr %27, align 8
  %29 = getelementptr inbounds nuw i8, ptr %28, i64 4
  store ptr %29, ptr %27, align 8
  %30 = load float, ptr %5, align 4
  call void @llvm.lifetime.end.p0(i64 4, ptr %5) #22
  ret float %30

31:                                               ; preds = %17
  %32 = load ptr, ptr %3, align 8
  %33 = load i32, ptr %4, align 4
  %34 = insertvalue { ptr, i32 } poison, ptr %32, 0
  %35 = insertvalue { ptr, i32 } %34, i32 %33, 1
  resume { ptr, i32 } %35
}

; Function Attrs: mustprogress uwtable
define linkonce_odr hidden noundef float @_ZN6Assimp12StreamReaderILb0ELb0EE5GetF4Ev(ptr noundef nonnull align 8 dereferenceable(49) %0) #1 comdat align 2 {
  %2 = alloca ptr, align 8
  store ptr %0, ptr %2, align 8
  %3 = load ptr, ptr %2, align 8
  %4 = call noundef float @_ZN6Assimp12StreamReaderILb0ELb0EE3GetIfEET_v(ptr noundef nonnull align 8 dereferenceable(49) %3)
  ret float %4
}

; Function Attrs: mustprogress uwtable
define internal void @_ZN6AssimpL8ReadAxisER12aiMatrix4x4tIfEPNS_12StreamReaderILb0ELb0EEE(ptr noundef nonnull align 4 dereferenceable(64) %0, ptr noundef %1) #1 {
  %3 = alloca ptr, align 8
  %4 = alloca ptr, align 8
  store ptr %0, ptr %3, align 8
  store ptr %1, ptr %4, align 8
  %5 = load ptr, ptr %4, align 8
  %6 = call noundef float @_ZN6Assimp12StreamReaderILb0ELb0EE5GetF4Ev(ptr noundef nonnull align 8 dereferenceable(49) %5)
  %7 = load ptr, ptr %3, align 8
  %8 = getelementptr inbounds nuw %class.aiMatrix4x4t, ptr %7, i32 0, i32 3
  store float %6, ptr %8, align 4
  %9 = load ptr, ptr %4, align 8
  %10 = call noundef float @_ZN6Assimp12StreamReaderILb0ELb0EE5GetF4Ev(ptr noundef nonnull align 8 dereferenceable(49) %9)
  %11 = load ptr, ptr %3, align 8
  %12 = getelementptr inbounds nuw %class.aiMatrix4x4t, ptr %11, i32 0, i32 7
  store float %10, ptr %12, align 4
  %13 = load ptr, ptr %4, align 8
  %14 = call noundef float @_ZN6Assimp12StreamReaderILb0ELb0EE5GetF4Ev(ptr noundef nonnull align 8 dereferenceable(49) %13)
  %15 = load ptr, ptr %3, align 8
  %16 = getelementptr inbounds nuw %class.aiMatrix4x4t, ptr %15, i32 0, i32 11
  store float %14, ptr %16, align 4
  %17 = load ptr, ptr %3, align 8
  %18 = getelementptr inbounds nuw %class.aiMatrix4x4t, ptr %17, i32 0, i32 15
  store float 1.000000e+00, ptr %18, align 4
  %19 = load ptr, ptr %4, align 8
  %20 = call noundef float @_ZN6Assimp12StreamReaderILb0ELb0EE5GetF4Ev(ptr noundef nonnull align 8 dereferenceable(49) %19)
  %21 = load ptr, ptr %3, align 8
  %22 = getelementptr inbounds nuw %class.aiMatrix4x4t, ptr %21, i32 0, i32 0
  store float %20, ptr %22, align 4
  %23 = load ptr, ptr %4, align 8
  %24 = call noundef float @_ZN6Assimp12StreamReaderILb0ELb0EE5GetF4Ev(ptr noundef nonnull align 8 dereferenceable(49) %23)
  %25 = load ptr, ptr %3, align 8
  %26 = getelementptr inbounds nuw %class.aiMatrix4x4t, ptr %25, i32 0, i32 4
  store float %24, ptr %26, align 4
  %27 = load ptr, ptr %4, align 8
  %28 = call noundef float @_ZN6Assimp12StreamReaderILb0ELb0EE5GetF4Ev(ptr noundef nonnull align 8 dereferenceable(49) %27)
  %29 = load ptr, ptr %3, align 8
  %30 = getelementptr inbounds nuw %class.aiMatrix4x4t, ptr %29, i32 0, i32 8
  store float %28, ptr %30, align 4
  %31 = load ptr, ptr %3, align 8
  %32 = getelementptr inbounds nuw %class.aiMatrix4x4t, ptr %31, i32 0, i32 12
  store float 0.000000e+00, ptr %32, align 4
  %33 = load ptr, ptr %4, align 8
  %34 = call noundef float @_ZN6Assimp12StreamReaderILb0ELb0EE5GetF4Ev(ptr noundef nonnull align 8 dereferenceable(49) %33)
  %35 = load ptr, ptr %3, align 8
  %36 = getelementptr inbounds nuw %class.aiMatrix4x4t, ptr %35, i32 0, i32 1
  store float %34, ptr %36, align 4
  %37 = load ptr, ptr %4, align 8
  %38 = call noundef float @_ZN6Assimp12StreamReaderILb0ELb0EE5GetF4Ev(ptr noundef nonnull align 8 dereferenceable(49) %37)
  %39 = load ptr, ptr %3, align 8
  %40 = getelementptr inbounds nuw %class.aiMatrix4x4t, ptr %39, i32 0, i32 5
  store float %38, ptr %40, align 4
  %41 = load ptr, ptr %4, align 8
  %42 = call noundef float @_ZN6Assimp12StreamReaderILb0ELb0EE5GetF4Ev(ptr noundef nonnull align 8 dereferenceable(49) %41)
  %43 = load ptr, ptr %3, align 8
  %44 = getelementptr inbounds nuw %class.aiMatrix4x4t, ptr %43, i32 0, i32 9
  store float %42, ptr %44, align 4
  %45 = load ptr, ptr %3, align 8
  %46 = getelementptr inbounds nuw %class.aiMatrix4x4t, ptr %45, i32 0, i32 13
  store float 0.000000e+00, ptr %46, align 4
  %47 = load ptr, ptr %4, align 8
  %48 = call noundef float @_ZN6Assimp12StreamReaderILb0ELb0EE5GetF4Ev(ptr noundef nonnull align 8 dereferenceable(49) %47)
  %49 = load ptr, ptr %3, align 8
  %50 = getelementptr inbounds nuw %class.aiMatrix4x4t, ptr %49, i32 0, i32 2
  store float %48, ptr %50, align 4
  %51 = load ptr, ptr %4, align 8
  %52 = call noundef float @_ZN6Assimp12StreamReaderILb0ELb0EE5GetF4Ev(ptr noundef nonnull align 8 dereferenceable(49) %51)
  %53 = load ptr, ptr %3, align 8
  %54 = getelementptr inbounds nuw %class.aiMatrix4x4t, ptr %53, i32 0, i32 6
  store float %52, ptr %54, align 4
  %55 = load ptr, ptr %4, align 8
  %56 = call noundef float @_ZN6Assimp12StreamReaderILb0ELb0EE5GetF4Ev(ptr noundef nonnull align 8 dereferenceable(49) %55)
  %57 = load ptr, ptr %3, align 8
  %58 = getelementptr inbounds nuw %class.aiMatrix4x4t, ptr %57, i32 0, i32 10
  store float %56, ptr %58, align 4
  %59 = load ptr, ptr %3, align 8
  %60 = getelementptr inbounds nuw %class.aiMatrix4x4t, ptr %59, i32 0, i32 14
  store float 0.000000e+00, ptr %60, align 4
  ret void
}