; Function Attrs: mustprogress uwtable
define internal fastcc void @_ZN6AssimpL8ReadAxisER12aiMatrix4x4tIfEPNS_12StreamReaderILb0ELb0EEE(ptr noundef nonnull writeonly align 4 captures(none) dereferenceable(64) %0, ptr noundef nonnull captures(none) %1) unnamed_addr #0 personality ptr @__gxx_personality_v0 {
  %3 = getelementptr inbounds nuw i8, ptr %1, i64 24
  %4 = load ptr, ptr %3, align 8
  %5 = getelementptr inbounds nuw i8, ptr %4, i64 4
  %6 = getelementptr inbounds nuw i8, ptr %1, i64 40
  %7 = load ptr, ptr %6, align 8
  %8 = icmp ugt ptr %5, %7
  br i1 %8, label %9, label %_ZN6Assimp12StreamReaderILb0ELb0EE5GetF4Ev.exit

9:                                                ; preds = %2
  %10 = tail call ptr @__cxa_allocate_exception(i64 16) #25
  invoke void @_ZN17DeadlyImportErrorC2EPKc(ptr noundef nonnull align 8 dereferenceable(16) %10, ptr noundef nonnull @.str.13)
          to label %11 unwind label %12

11:                                               ; preds = %9
  tail call void @__cxa_throw(ptr nonnull %10, ptr nonnull @_ZTI17DeadlyImportError, ptr nonnull @_ZNSt13runtime_errorD2Ev) #27
  unreachable

common.resume:                                    ; preds = %135, %124, %113, %101, %90, %79, %67, %56, %46, %34, %23, %12
  %.sink = phi ptr [ %133, %135 ], [ %122, %124 ], [ %111, %113 ], [ %99, %101 ], [ %88, %90 ], [ %77, %79 ], [ %65, %67 ], [ %54, %56 ], [ %44, %46 ], [ %32, %34 ], [ %21, %23 ], [ %10, %12 ]
  %common.resume.op = phi { ptr, i32 } [ %136, %135 ], [ %125, %124 ], [ %114, %113 ], [ %102, %101 ], [ %91, %90 ], [ %80, %79 ], [ %68, %67 ], [ %57, %56 ], [ %47, %46 ], [ %35, %34 ], [ %24, %23 ], [ %13, %12 ]
  tail call void @__cxa_free_exception(ptr nonnull %.sink) #25
  resume { ptr, i32 } %common.resume.op

12:                                               ; preds = %9
  %13 = landingpad { ptr, i32 }
          cleanup
  br label %common.resume

_ZN6Assimp12StreamReaderILb0ELb0EE5GetF4Ev.exit:  ; preds = %2
  %14 = load float, ptr %4, align 1
  store ptr %5, ptr %3, align 8
  %15 = getelementptr inbounds nuw i8, ptr %0, i64 12
  store float %14, ptr %15, align 4
  %16 = load ptr, ptr %3, align 8
  %17 = getelementptr inbounds nuw i8, ptr %16, i64 4
  %18 = load ptr, ptr %6, align 8
  %19 = icmp ugt ptr %17, %18
  br i1 %19, label %20, label %_ZN6Assimp12StreamReaderILb0ELb0EE5GetF4Ev.exit28

20:                                               ; preds = %_ZN6Assimp12StreamReaderILb0ELb0EE5GetF4Ev.exit
  %21 = tail call ptr @__cxa_allocate_exception(i64 16) #25
  invoke void @_ZN17DeadlyImportErrorC2EPKc(ptr noundef nonnull align 8 dereferenceable(16) %21, ptr noundef nonnull @.str.13)
          to label %22 unwind label %23

22:                                               ; preds = %20
  tail call void @__cxa_throw(ptr nonnull %21, ptr nonnull @_ZTI17DeadlyImportError, ptr nonnull @_ZNSt13runtime_errorD2Ev) #27
  unreachable

23:                                               ; preds = %20
  %24 = landingpad { ptr, i32 }
          cleanup
  br label %common.resume

_ZN6Assimp12StreamReaderILb0ELb0EE5GetF4Ev.exit28: ; preds = %_ZN6Assimp12StreamReaderILb0ELb0EE5GetF4Ev.exit
  %25 = load float, ptr %16, align 1
  store ptr %17, ptr %3, align 8
  %26 = getelementptr inbounds nuw i8, ptr %0, i64 28
  store float %25, ptr %26, align 4
  %27 = load ptr, ptr %3, align 8
  %28 = getelementptr inbounds nuw i8, ptr %27, i64 4
  %29 = load ptr, ptr %6, align 8
  %30 = icmp ugt ptr %28, %29
  br i1 %30, label %31, label %_ZN6Assimp12StreamReaderILb0ELb0EE5GetF4Ev.exit29

31:                                               ; preds = %_ZN6Assimp12StreamReaderILb0ELb0EE5GetF4Ev.exit28
  %32 = tail call ptr @__cxa_allocate_exception(i64 16) #25
  invoke void @_ZN17DeadlyImportErrorC2EPKc(ptr noundef nonnull align 8 dereferenceable(16) %32, ptr noundef nonnull @.str.13)
          to label %33 unwind label %34

33:                                               ; preds = %31
  tail call void @__cxa_throw(ptr nonnull %32, ptr nonnull @_ZTI17DeadlyImportError, ptr nonnull @_ZNSt13runtime_errorD2Ev) #27
  unreachable

34:                                               ; preds = %31
  %35 = landingpad { ptr, i32 }
          cleanup
  br label %common.resume

_ZN6Assimp12StreamReaderILb0ELb0EE5GetF4Ev.exit29: ; preds = %_ZN6Assimp12StreamReaderILb0ELb0EE5GetF4Ev.exit28
  %36 = load float, ptr %27, align 1
  store ptr %28, ptr %3, align 8
  %37 = getelementptr inbounds nuw i8, ptr %0, i64 44
  store float %36, ptr %37, align 4
  %38 = getelementptr inbounds nuw i8, ptr %0, i64 60
  store float 1.000000e+00, ptr %38, align 4
  %39 = load ptr, ptr %3, align 8
  %40 = getelementptr inbounds nuw i8, ptr %39, i64 4
  %41 = load ptr, ptr %6, align 8
  %42 = icmp ugt ptr %40, %41
  br i1 %42, label %43, label %_ZN6Assimp12StreamReaderILb0ELb0EE5GetF4Ev.exit30

43:                                               ; preds = %_ZN6Assimp12StreamReaderILb0ELb0EE5GetF4Ev.exit29
  %44 = tail call ptr @__cxa_allocate_exception(i64 16) #25
  invoke void @_ZN17DeadlyImportErrorC2EPKc(ptr noundef nonnull align 8 dereferenceable(16) %44, ptr noundef nonnull @.str.13)
          to label %45 unwind label %46

45:                                               ; preds = %43
  tail call void @__cxa_throw(ptr nonnull %44, ptr nonnull @_ZTI17DeadlyImportError, ptr nonnull @_ZNSt13runtime_errorD2Ev) #27
  unreachable

46:                                               ; preds = %43
  %47 = landingpad { ptr, i32 }
          cleanup
  br label %common.resume

_ZN6Assimp12StreamReaderILb0ELb0EE5GetF4Ev.exit30: ; preds = %_ZN6Assimp12StreamReaderILb0ELb0EE5GetF4Ev.exit29
  %48 = load float, ptr %39, align 1
  store ptr %40, ptr %3, align 8
  store float %48, ptr %0, align 4
  %49 = load ptr, ptr %3, align 8
  %50 = getelementptr inbounds nuw i8, ptr %49, i64 4
  %51 = load ptr, ptr %6, align 8
  %52 = icmp ugt ptr %50, %51
  br i1 %52, label %53, label %_ZN6Assimp12StreamReaderILb0ELb0EE5GetF4Ev.exit31

53:                                               ; preds = %_ZN6Assimp12StreamReaderILb0ELb0EE5GetF4Ev.exit30
  %54 = tail call ptr @__cxa_allocate_exception(i64 16) #25
  invoke void @_ZN17DeadlyImportErrorC2EPKc(ptr noundef nonnull align 8 dereferenceable(16) %54, ptr noundef nonnull @.str.13)
          to label %55 unwind label %56

55:                                               ; preds = %53
  tail call void @__cxa_throw(ptr nonnull %54, ptr nonnull @_ZTI17DeadlyImportError, ptr nonnull @_ZNSt13runtime_errorD2Ev) #27
  unreachable

56:                                               ; preds = %53
  %57 = landingpad { ptr, i32 }
          cleanup
  br label %common.resume

_ZN6Assimp12StreamReaderILb0ELb0EE5GetF4Ev.exit31: ; preds = %_ZN6Assimp12StreamReaderILb0ELb0EE5GetF4Ev.exit30
  %58 = load float, ptr %49, align 1
  store ptr %50, ptr %3, align 8
  %59 = getelementptr inbounds nuw i8, ptr %0, i64 16
  store float %58, ptr %59, align 4
  %60 = load ptr, ptr %3, align 8
  %61 = getelementptr inbounds nuw i8, ptr %60, i64 4
  %62 = load ptr, ptr %6, align 8
  %63 = icmp ugt ptr %61, %62
  br i1 %63, label %64, label %_ZN6Assimp12StreamReaderILb0ELb0EE5GetF4Ev.exit32

64:                                               ; preds = %_ZN6Assimp12StreamReaderILb0ELb0EE5GetF4Ev.exit31
  %65 = tail call ptr @__cxa_allocate_exception(i64 16) #25
  invoke void @_ZN17DeadlyImportErrorC2EPKc(ptr noundef nonnull align 8 dereferenceable(16) %65, ptr noundef nonnull @.str.13)
          to label %66 unwind label %67

66:                                               ; preds = %64
  tail call void @__cxa_throw(ptr nonnull %65, ptr nonnull @_ZTI17DeadlyImportError, ptr nonnull @_ZNSt13runtime_errorD2Ev) #27
  unreachable

67:                                               ; preds = %64
  %68 = landingpad { ptr, i32 }
          cleanup
  br label %common.resume

_ZN6Assimp12StreamReaderILb0ELb0EE5GetF4Ev.exit32: ; preds = %_ZN6Assimp12StreamReaderILb0ELb0EE5GetF4Ev.exit31
  %69 = load float, ptr %60, align 1
  store ptr %61, ptr %3, align 8
  %70 = getelementptr inbounds nuw i8, ptr %0, i64 32
  store float %69, ptr %70, align 4
  %71 = getelementptr inbounds nuw i8, ptr %0, i64 48
  store float 0.000000e+00, ptr %71, align 4
  %72 = load ptr, ptr %3, align 8
  %73 = getelementptr inbounds nuw i8, ptr %72, i64 4
  %74 = load ptr, ptr %6, align 8
  %75 = icmp ugt ptr %73, %74
  br i1 %75, label %76, label %_ZN6Assimp12StreamReaderILb0ELb0EE5GetF4Ev.exit33

76:                                               ; preds = %_ZN6Assimp12StreamReaderILb0ELb0EE5GetF4Ev.exit32
  %77 = tail call ptr @__cxa_allocate_exception(i64 16) #25
  invoke void @_ZN17DeadlyImportErrorC2EPKc(ptr noundef nonnull align 8 dereferenceable(16) %77, ptr noundef nonnull @.str.13)
          to label %78 unwind label %79

78:                                               ; preds = %76
  tail call void @__cxa_throw(ptr nonnull %77, ptr nonnull @_ZTI17DeadlyImportError, ptr nonnull @_ZNSt13runtime_errorD2Ev) #27
  unreachable

79:                                               ; preds = %76
  %80 = landingpad { ptr, i32 }
          cleanup
  br label %common.resume

_ZN6Assimp12StreamReaderILb0ELb0EE5GetF4Ev.exit33: ; preds = %_ZN6Assimp12StreamReaderILb0ELb0EE5GetF4Ev.exit32
  %81 = load float, ptr %72, align 1
  store ptr %73, ptr %3, align 8
  %82 = getelementptr inbounds nuw i8, ptr %0, i64 4
  store float %81, ptr %82, align 4
  %83 = load ptr, ptr %3, align 8
  %84 = getelementptr inbounds nuw i8, ptr %83, i64 4
  %85 = load ptr, ptr %6, align 8
  %86 = icmp ugt ptr %84, %85
  br i1 %86, label %87, label %_ZN6Assimp12StreamReaderILb0ELb0EE5GetF4Ev.exit34

87:                                               ; preds = %_ZN6Assimp12StreamReaderILb0ELb0EE5GetF4Ev.exit33
  %88 = tail call ptr @__cxa_allocate_exception(i64 16) #25
  invoke void @_ZN17DeadlyImportErrorC2EPKc(ptr noundef nonnull align 8 dereferenceable(16) %88, ptr noundef nonnull @.str.13)
          to label %89 unwind label %90

89:                                               ; preds = %87
  tail call void @__cxa_throw(ptr nonnull %88, ptr nonnull @_ZTI17DeadlyImportError, ptr nonnull @_ZNSt13runtime_errorD2Ev) #27
  unreachable

90:                                               ; preds = %87
  %91 = landingpad { ptr, i32 }
          cleanup
  br label %common.resume

_ZN6Assimp12StreamReaderILb0ELb0EE5GetF4Ev.exit34: ; preds = %_ZN6Assimp12StreamReaderILb0ELb0EE5GetF4Ev.exit33
  %92 = load float, ptr %83, align 1
  store ptr %84, ptr %3, align 8
  %93 = getelementptr inbounds nuw i8, ptr %0, i64 20
  store float %92, ptr %93, align 4
  %94 = load ptr, ptr %3, align 8
  %95 = getelementptr inbounds nuw i8, ptr %94, i64 4
  %96 = load ptr, ptr %6, align 8
  %97 = icmp ugt ptr %95, %96
  br i1 %97, label %98, label %_ZN6Assimp12StreamReaderILb0ELb0EE5GetF4Ev.exit35

98:                                               ; preds = %_ZN6Assimp12StreamReaderILb0ELb0EE5GetF4Ev.exit34
  %99 = tail call ptr @__cxa_allocate_exception(i64 16) #25
  invoke void @_ZN17DeadlyImportErrorC2EPKc(ptr noundef nonnull align 8 dereferenceable(16) %99, ptr noundef nonnull @.str.13)
          to label %100 unwind label %101

100:                                              ; preds = %98
  tail call void @__cxa_throw(ptr nonnull %99, ptr nonnull @_ZTI17DeadlyImportError, ptr nonnull @_ZNSt13runtime_errorD2Ev) #27
  unreachable

101:                                              ; preds = %98
  %102 = landingpad { ptr, i32 }
          cleanup
  br label %common.resume

_ZN6Assimp12StreamReaderILb0ELb0EE5GetF4Ev.exit35: ; preds = %_ZN6Assimp12StreamReaderILb0ELb0EE5GetF4Ev.exit34
  %103 = load float, ptr %94, align 1
  store ptr %95, ptr %3, align 8
  %104 = getelementptr inbounds nuw i8, ptr %0, i64 36
  store float %103, ptr %104, align 4
  %105 = getelementptr inbounds nuw i8, ptr %0, i64 52
  store float 0.000000e+00, ptr %105, align 4
  %106 = load ptr, ptr %3, align 8
  %107 = getelementptr inbounds nuw i8, ptr %106, i64 4
  %108 = load ptr, ptr %6, align 8
  %109 = icmp ugt ptr %107, %108
  br i1 %109, label %110, label %_ZN6Assimp12StreamReaderILb0ELb0EE5GetF4Ev.exit36

110:                                              ; preds = %_ZN6Assimp12StreamReaderILb0ELb0EE5GetF4Ev.exit35
  %111 = tail call ptr @__cxa_allocate_exception(i64 16) #25
  invoke void @_ZN17DeadlyImportErrorC2EPKc(ptr noundef nonnull align 8 dereferenceable(16) %111, ptr noundef nonnull @.str.13)
          to label %112 unwind label %113

112:                                              ; preds = %110
  tail call void @__cxa_throw(ptr nonnull %111, ptr nonnull @_ZTI17DeadlyImportError, ptr nonnull @_ZNSt13runtime_errorD2Ev) #27
  unreachable

113:                                              ; preds = %110
  %114 = landingpad { ptr, i32 }
          cleanup
  br label %common.resume

_ZN6Assimp12StreamReaderILb0ELb0EE5GetF4Ev.exit36: ; preds = %_ZN6Assimp12StreamReaderILb0ELb0EE5GetF4Ev.exit35
  %115 = load float, ptr %106, align 1
  store ptr %107, ptr %3, align 8
  %116 = getelementptr inbounds nuw i8, ptr %0, i64 8
  store float %115, ptr %116, align 4
  %117 = load ptr, ptr %3, align 8
  %118 = getelementptr inbounds nuw i8, ptr %117, i64 4
  %119 = load ptr, ptr %6, align 8
  %120 = icmp ugt ptr %118, %119
  br i1 %120, label %121, label %_ZN6Assimp12StreamReaderILb0ELb0EE5GetF4Ev.exit37

121:                                              ; preds = %_ZN6Assimp12StreamReaderILb0ELb0EE5GetF4Ev.exit36
  %122 = tail call ptr @__cxa_allocate_exception(i64 16) #25
  invoke void @_ZN17DeadlyImportErrorC2EPKc(ptr noundef nonnull align 8 dereferenceable(16) %122, ptr noundef nonnull @.str.13)
          to label %123 unwind label %124

123:                                              ; preds = %121
  tail call void @__cxa_throw(ptr nonnull %122, ptr nonnull @_ZTI17DeadlyImportError, ptr nonnull @_ZNSt13runtime_errorD2Ev) #27
  unreachable

124:                                              ; preds = %121
  %125 = landingpad { ptr, i32 }
          cleanup
  br label %common.resume

_ZN6Assimp12StreamReaderILb0ELb0EE5GetF4Ev.exit37: ; preds = %_ZN6Assimp12StreamReaderILb0ELb0EE5GetF4Ev.exit36
  %126 = load float, ptr %117, align 1
  store ptr %118, ptr %3, align 8
  %127 = getelementptr inbounds nuw i8, ptr %0, i64 24
  store float %126, ptr %127, align 4
  %128 = load ptr, ptr %3, align 8
  %129 = getelementptr inbounds nuw i8, ptr %128, i64 4
  %130 = load ptr, ptr %6, align 8
  %131 = icmp ugt ptr %129, %130
  br i1 %131, label %132, label %_ZN6Assimp12StreamReaderILb0ELb0EE5GetF4Ev.exit38

132:                                              ; preds = %_ZN6Assimp12StreamReaderILb0ELb0EE5GetF4Ev.exit37
  %133 = tail call ptr @__cxa_allocate_exception(i64 16) #25
  invoke void @_ZN17DeadlyImportErrorC2EPKc(ptr noundef nonnull align 8 dereferenceable(16) %133, ptr noundef nonnull @.str.13)
          to label %134 unwind label %135

134:                                              ; preds = %132
  tail call void @__cxa_throw(ptr nonnull %133, ptr nonnull @_ZTI17DeadlyImportError, ptr nonnull @_ZNSt13runtime_errorD2Ev) #27
  unreachable

135:                                              ; preds = %132
  %136 = landingpad { ptr, i32 }
          cleanup
  br label %common.resume

_ZN6Assimp12StreamReaderILb0ELb0EE5GetF4Ev.exit38: ; preds = %_ZN6Assimp12StreamReaderILb0ELb0EE5GetF4Ev.exit37
  %137 = load float, ptr %128, align 1
  store ptr %129, ptr %3, align 8
  %138 = getelementptr inbounds nuw i8, ptr %0, i64 40
  store float %137, ptr %138, align 4
  %139 = getelementptr inbounds nuw i8, ptr %0, i64 56
  store float 0.000000e+00, ptr %139, align 4
  ret void
}